(dp0
S'Hide'
p1
S''
p2
sS'Use Magic Device'
p3
g2
sS'Craft(1)'
p4
g2
sS'Forgery'
p5
g2
sS'Move Silently'
p6
g2
sS'Use Rope'
p7
g2
sS'Disable Device'
p8
g2
sS'Knowledge(4)'
p9
g2
sS'Perform(3)'
p10
g2
sS'Profession(1)'
p11
g2
sS'Knowledge(1)'
p12
g2
sS'Listen'
p13
g2
sS'Knowledge(3)'
p14
g2
sS'Tumble'
p15
g2
sS'Craft(2)'
p16
g2
sS'Spellcraft'
p17
g2
sS'Sense Motive'
p18
g2
sS'Heal'
p19
g2
sS'Spot'
p20
g2
sS'Knowledge(2)'
p21
g2
sS'Bluff'
p22
g2
sS'Sleight of Hand'
p23
g2
sS'Swim'
p24
g2
sS'Search'
p25
g2
sS'Gather Information'
p26
g2
sS'Intimidate'
p27
g2
sS'Ride'
p28
g2
sS'Profession(2)'
p29
g2
sS'Perform(2)'
p30
g2
sS'Knowledge(5)'
p31
g2
sS'Climb'
p32
g2
sS'Balance'
p33
g2
sS'Appraise'
p34
g2
sS'Craft(3)'
p35
g2
sS'Diplomacy'
p36
g2
sS'Escape Artist'
p37
g2
sS'Open Lock'
p38
g2
sS'Handle Animal'
p39
g2
sS'Jump'
p40
g2
sS'Disguise'
p41
g2
sS'Concentration'
p42
g2
sS'Perform(1)'
p43
g2
sS'Survival'
p44
g2
sS'Decipher Script'
p45
g2
s.